; Function Attrs: mustprogress nofree norecurse nosync nounwind memory(readwrite, inaccessiblemem: none) uwtable
define void @_ZN5Ipopt11DenseVector18ElementWiseAbsImplEv(ptr nocapture noundef nonnull align 8 dereferenceable(248) %0) unnamed_addr #8 align 2 {
  %2 = getelementptr inbounds i8, ptr %0, i64 233
  %3 = load i8, ptr %2, align 1
  %4 = and i8 %3, 1
  %.not = icmp eq i8 %4, 0
  br i1 %.not, label %.preheader, label %11

.preheader:                                       ; preds = %1
  %5 = getelementptr inbounds i8, ptr %0, i64 56
  %6 = load ptr, ptr %5, align 8
  %7 = getelementptr inbounds i8, ptr %6, i64 12
  %8 = load i32, ptr %7, align 4
  %9 = icmp sgt i32 %8, 0
  br i1 %9, label %.lr.ph, label %.loopexit

.lr.ph:                                           ; preds = %.preheader
  %10 = getelementptr inbounds i8, ptr %0, i64 216
  br label %15

11:                                               ; preds = %1
  %12 = getelementptr inbounds i8, ptr %0, i64 240
  %13 = load double, ptr %12, align 8
  %14 = tail call noundef double @llvm.fabs.f64(double %13)
  store double %14, ptr %12, align 8
  br label %.loopexit

15:                                               ; preds = %.lr.ph, %15
  %indvars.iv = phi i64 [ 0, %.lr.ph ], [ %indvars.iv.next, %15 ]
  %16 = load ptr, ptr %10, align 8
  %17 = getelementptr inbounds double, ptr %16, i64 %indvars.iv
  %18 = load double, ptr %17, align 8
  %19 = tail call noundef double @llvm.fabs.f64(double %18)
  store double %19, ptr %17, align 8
  %indvars.iv.next = add nuw nsw i64 %indvars.iv, 1
  %20 = load ptr, ptr %5, align 8
  %21 = getelementptr inbounds i8, ptr %20, i64 12
  %22 = load i32, ptr %21, align 4
  %23 = sext i32 %22 to i64
  %24 = icmp slt i64 %indvars.iv.next, %23
  br i1 %24, label %15, label %.loopexit, !llvm.loop !24

.loopexit:                                        ; preds = %15, %.preheader, %11
  ret void
}